target datalayout = "e-m:e-p270:32:32-p271:32:32-p272:64:64-i64:64-i128:128-f80:128-n8:16:32:64-S128"
target triple = "x86_64-pc-linux-gnu"

%struct._SPI_connection = type { i64, ptr, i32, %struct.slist_head, ptr, ptr, ptr, i32, ptr, i8, i8, i64, ptr, i32 }
%struct.slist_head = type { %struct.slist_node }
%struct.slist_node = type { ptr }
%struct.SPITupleTable = type { ptr, ptr, i64, i64, ptr, %struct.slist_node, i32 }

@.str.1 = private unnamed_addr constant [6 x i8] c"spi.c\00", align 1
@_SPI_current = internal global ptr null, align 8
@.str.48 = private unnamed_addr constant [51 x i8] c"spi_dest_startup called while not connected to SPI\00", align 1
@__func__.spi_dest_startup = private unnamed_addr constant [17 x i8] c"spi_dest_startup\00", align 1
@.str.49 = private unnamed_addr constant [34 x i8] c"improper call to spi_dest_startup\00", align 1
@CurrentMemoryContext = external global ptr, align 8
@.str.50 = private unnamed_addr constant [13 x i8] c"SPI TupTable\00", align 1

; Function Attrs: inlinehint nounwind uwtable
define internal void @slist_push_head(ptr noundef %0, ptr noundef %1) #4 {
  %3 = alloca ptr, align 8
  %4 = alloca ptr, align 8
  store ptr %0, ptr %3, align 8
  store ptr %1, ptr %4, align 8
  %5 = load ptr, ptr %3, align 8
  %6 = getelementptr inbounds nuw %struct.slist_head, ptr %5, i32 0, i32 0
  %7 = getelementptr inbounds nuw %struct.slist_node, ptr %6, i32 0, i32 0
  %8 = load ptr, ptr %7, align 8
  %9 = load ptr, ptr %4, align 8
  %10 = getelementptr inbounds nuw %struct.slist_node, ptr %9, i32 0, i32 0
  store ptr %8, ptr %10, align 8
  %11 = load ptr, ptr %4, align 8
  %12 = load ptr, ptr %3, align 8
  %13 = getelementptr inbounds nuw %struct.slist_head, ptr %12, i32 0, i32 0
  %14 = getelementptr inbounds nuw %struct.slist_node, ptr %13, i32 0, i32 0
  store ptr %11, ptr %14, align 8
  ret void
}

; Function Attrs: inlinehint nounwind uwtable
define internal ptr @MemoryContextSwitchTo(ptr noundef %0) #4 {
  %2 = alloca ptr, align 8
  %3 = alloca ptr, align 8
  store ptr %0, ptr %2, align 8
  call void @llvm.lifetime.start.p0(i64 8, ptr %3) #9
  %4 = load ptr, ptr @CurrentMemoryContext, align 8
  store ptr %4, ptr %3, align 8
  %5 = load ptr, ptr %2, align 8
  store ptr %5, ptr @CurrentMemoryContext, align 8
  %6 = load ptr, ptr %3, align 8
  call void @llvm.lifetime.end.p0(i64 8, ptr %3) #9
  ret ptr %6
}

; Function Attrs: nounwind uwtable
define internal ptr @_SPI_procmem() #0 {
  %1 = load ptr, ptr @_SPI_current, align 8
  %2 = getelementptr inbounds nuw %struct._SPI_connection, ptr %1, i32 0, i32 4
  %3 = load ptr, ptr %2, align 8
  %4 = call ptr @MemoryContextSwitchTo(ptr noundef %3)
  ret ptr %4
}

; Function Attrs: nounwind uwtable
define dso_local void @spi_dest_startup(ptr noundef %0, i32 noundef %1, ptr noundef %2) #0 {
  %4 = alloca ptr, align 8
  %5 = alloca i32, align 4
  %6 = alloca ptr, align 8
  %7 = alloca ptr, align 8
  %8 = alloca ptr, align 8
  %9 = alloca ptr, align 8
  %10 = alloca i32, align 4
  store ptr %0, ptr %4, align 8
  store i32 %1, ptr %5, align 4
  store ptr %2, ptr %6, align 8
  call void @llvm.lifetime.start.p0(i64 8, ptr %7) #9
  call void @llvm.lifetime.start.p0(i64 8, ptr %8) #9
  call void @llvm.lifetime.start.p0(i64 8, ptr %9) #9
  %11 = load ptr, ptr @_SPI_current, align 8
  %12 = icmp eq ptr %11, null
  br i1 %12, label %13, label %24

13:                                               ; preds = %3
  br label %14

14:                                               ; preds = %13
  br i1 true, label %15, label %17

15:                                               ; preds = %14
  %16 = call zeroext i1 @errstart_cold(i32 noundef 21, ptr noundef null) #10
  br i1 %16, label %19, label %21

17:                                               ; preds = %14
  %18 = call zeroext i1 @errstart(i32 noundef 21, ptr noundef null)
  br i1 %18, label %19, label %21

19:                                               ; preds = %17, %15
  %20 = call i32 (ptr, ...) @errmsg_internal(ptr noundef @.str.48)
  call void @errfinish(ptr noundef @.str.1, i32 noundef 2130, ptr noundef @__func__.spi_dest_startup)
  br label %21

21:                                               ; preds = %19, %17, %15
  unreachable

22:                                               ; No predecessors!
  br label %23

23:                                               ; preds = %22
  br label %24

24:                                               ; preds = %23, %3
  %25 = load ptr, ptr @_SPI_current, align 8
  %26 = getelementptr inbounds nuw %struct._SPI_connection, ptr %25, i32 0, i32 1
  %27 = load ptr, ptr %26, align 8
  %28 = icmp ne ptr %27, null
  br i1 %28, label %29, label %40

29:                                               ; preds = %24
  br label %30

30:                                               ; preds = %29
  br i1 true, label %31, label %33

31:                                               ; preds = %30
  %32 = call zeroext i1 @errstart_cold(i32 noundef 21, ptr noundef null) #10
  br i1 %32, label %35, label %37

33:                                               ; preds = %30
  %34 = call zeroext i1 @errstart(i32 noundef 21, ptr noundef null)
  br i1 %34, label %35, label %37

35:                                               ; preds = %33, %31
  %36 = call i32 (ptr, ...) @errmsg_internal(ptr noundef @.str.49)
  call void @errfinish(ptr noundef @.str.1, i32 noundef 2133, ptr noundef @__func__.spi_dest_startup)
  br label %37

37:                                               ; preds = %35, %33, %31
  unreachable

38:                                               ; No predecessors!
  br label %39

39:                                               ; preds = %38
  br label %40

40:                                               ; preds = %39, %24
  %41 = call ptr @_SPI_procmem()
  store ptr %41, ptr %8, align 8
  br label %42

42:                                               ; preds = %40
  br label %43

43:                                               ; preds = %42
  br label %44

44:                                               ; preds = %43
  store i32 1, ptr %10, align 4
  %45 = load ptr, ptr @CurrentMemoryContext, align 8
  %46 = call ptr @AllocSetContextCreateInternal(ptr noundef %45, ptr noundef @.str.50, i64 noundef 0, i64 noundef 8192, i64 noundef 8388608)
  store ptr %46, ptr %9, align 8
  %47 = load ptr, ptr %9, align 8
  %48 = call ptr @MemoryContextSwitchTo(ptr noundef %47)
  %49 = call ptr @palloc0(i64 noundef 56)
  store ptr %49, ptr %7, align 8
  %50 = load ptr, ptr @_SPI_current, align 8
  %51 = getelementptr inbounds nuw %struct._SPI_connection, ptr %50, i32 0, i32 1
  store ptr %49, ptr %51, align 8
  %52 = load ptr, ptr %9, align 8
  %53 = load ptr, ptr %7, align 8
  %54 = getelementptr inbounds nuw %struct.SPITupleTable, ptr %53, i32 0, i32 4
  store ptr %52, ptr %54, align 8
  %55 = call i32 @GetCurrentSubTransactionId()
  %56 = load ptr, ptr %7, align 8
  %57 = getelementptr inbounds nuw %struct.SPITupleTable, ptr %56, i32 0, i32 6
  store i32 %55, ptr %57, align 8
  %58 = load ptr, ptr @_SPI_current, align 8
  %59 = getelementptr inbounds nuw %struct._SPI_connection, ptr %58, i32 0, i32 3
  %60 = load ptr, ptr %7, align 8
  %61 = getelementptr inbounds nuw %struct.SPITupleTable, ptr %60, i32 0, i32 5
  call void @slist_push_head(ptr noundef %59, ptr noundef %61)
  %62 = load ptr, ptr %7, align 8
  %63 = getelementptr inbounds nuw %struct.SPITupleTable, ptr %62, i32 0, i32 3
  store i64 128, ptr %63, align 8
  %64 = load ptr, ptr %7, align 8
  %65 = getelementptr inbounds nuw %struct.SPITupleTable, ptr %64, i32 0, i32 3
  %66 = load i64, ptr %65, align 8
  %67 = mul i64 %66, 8
  %68 = call ptr @palloc(i64 noundef %67)
  %69 = load ptr, ptr %7, align 8
  %70 = getelementptr inbounds nuw %struct.SPITupleTable, ptr %69, i32 0, i32 1
  store ptr %68, ptr %70, align 8
  %71 = load ptr, ptr %7, align 8
  %72 = getelementptr inbounds nuw %struct.SPITupleTable, ptr %71, i32 0, i32 2
  store i64 0, ptr %72, align 8
  %73 = load ptr, ptr %6, align 8
  %74 = call ptr @CreateTupleDescCopy(ptr noundef %73)
  %75 = load ptr, ptr %7, align 8
  %76 = getelementptr inbounds nuw %struct.SPITupleTable, ptr %75, i32 0, i32 0
  store ptr %74, ptr %76, align 8
  %77 = load ptr, ptr %8, align 8
  %78 = call ptr @MemoryContextSwitchTo(ptr noundef %77)
  call void @llvm.lifetime.end.p0(i64 8, ptr %9) #9
  call void @llvm.lifetime.end.p0(i64 8, ptr %8) #9
  call void @llvm.lifetime.end.p0(i64 8, ptr %7) #9
  ret void
}