; Function Attrs: nounwind uwtable
define dso_local void @spi_dest_startup(ptr noundef readnone captures(none) %0, i32 noundef %1, ptr noundef %2) local_unnamed_addr #0 {
  %4 = load ptr, ptr @_SPI_current, align 8
  %5 = icmp eq ptr %4, null
  br i1 %5, label %6, label %9

6:                                                ; preds = %3
  %7 = tail call zeroext i1 @errstart_cold(i32 noundef 21, ptr noundef null) #14
  tail call void @llvm.assume(i1 %7)
  %8 = tail call i32 (ptr, ...) @errmsg_internal(ptr noundef nonnull @.str.48) #15
  tail call void @errfinish(ptr noundef nonnull @.str.1, i32 noundef 2130, ptr noundef nonnull @__func__.spi_dest_startup) #15
  unreachable

9:                                                ; preds = %3
  %10 = getelementptr inbounds nuw i8, ptr %4, i64 8
  %11 = load ptr, ptr %10, align 8
  %.not = icmp eq ptr %11, null
  br i1 %.not, label %15, label %12

12:                                               ; preds = %9
  %13 = tail call zeroext i1 @errstart_cold(i32 noundef 21, ptr noundef null) #14
  tail call void @llvm.assume(i1 %13)
  %14 = tail call i32 (ptr, ...) @errmsg_internal(ptr noundef nonnull @.str.49) #15
  tail call void @errfinish(ptr noundef nonnull @.str.1, i32 noundef 2133, ptr noundef nonnull @__func__.spi_dest_startup) #15
  unreachable

15:                                               ; preds = %9
  %16 = getelementptr inbounds nuw i8, ptr %4, i64 32
  %17 = load ptr, ptr %16, align 8
  %18 = load ptr, ptr @CurrentMemoryContext, align 8
  store ptr %17, ptr @CurrentMemoryContext, align 8
  %19 = tail call ptr @AllocSetContextCreateInternal(ptr noundef %17, ptr noundef nonnull @.str.50, i64 noundef 0, i64 noundef 8192, i64 noundef 8388608) #15
  store ptr %19, ptr @CurrentMemoryContext, align 8
  %20 = tail call ptr @palloc0(i64 noundef 56) #15
  %21 = load ptr, ptr @_SPI_current, align 8
  %22 = getelementptr inbounds nuw i8, ptr %21, i64 8
  store ptr %20, ptr %22, align 8
  %23 = getelementptr inbounds nuw i8, ptr %20, i64 32
  store ptr %19, ptr %23, align 8
  %24 = tail call i32 @GetCurrentSubTransactionId() #15
  %25 = getelementptr inbounds nuw i8, ptr %20, i64 48
  store i32 %24, ptr %25, align 8
  %26 = load ptr, ptr @_SPI_current, align 8
  %27 = getelementptr inbounds nuw i8, ptr %26, i64 24
  %28 = getelementptr inbounds nuw i8, ptr %20, i64 40
  %29 = load ptr, ptr %27, align 8
  store ptr %29, ptr %28, align 8
  store ptr %28, ptr %27, align 8
  %30 = getelementptr inbounds nuw i8, ptr %20, i64 24
  store i64 128, ptr %30, align 8
  %31 = tail call ptr @palloc(i64 noundef 1024) #15
  %32 = getelementptr inbounds nuw i8, ptr %20, i64 8
  store ptr %31, ptr %32, align 8
  %33 = getelementptr inbounds nuw i8, ptr %20, i64 16
  store i64 0, ptr %33, align 8
  %34 = tail call ptr @CreateTupleDescCopy(ptr noundef %2) #15
  store ptr %34, ptr %20, align 8
  store ptr %18, ptr @CurrentMemoryContext, align 8
  ret void
}